; Function Attrs: nounwind uwtable
define noalias noundef ptr @Gia_ManDupUifBoxTypes(ptr noundef readonly captures(none) %0) local_unnamed_addr #1 {
  %2 = tail call noalias dereferenceable_or_null(16) ptr @malloc(i64 noundef 16) #27
  %3 = getelementptr inbounds nuw i8, ptr %2, i64 4
  store i32 0, ptr %3, align 4
  store i32 16, ptr %2, align 8
  %4 = tail call noalias dereferenceable_or_null(64) ptr @malloc(i64 noundef 64) #27
  %5 = getelementptr inbounds nuw i8, ptr %2, i64 8
  store ptr %4, ptr %5, align 8
  %6 = getelementptr i8, ptr %0, i64 4
  %.val11 = load i32, ptr %6, align 4
  %7 = icmp sgt i32 %.val11, 0
  br i1 %7, label %.lr.ph, label %.critedge

.lr.ph:                                           ; preds = %1
  %8 = getelementptr i8, ptr %0, i64 8
  br label %9

9:                                                ; preds = %.lr.ph, %Vec_IntFind.exit
  %.val14 = phi i32 [ %.val11, %.lr.ph ], [ %.val, %Vec_IntFind.exit ]
  %indvars.iv = phi i64 [ 0, %.lr.ph ], [ %indvars.iv.next, %Vec_IntFind.exit ]
  %.val9 = load ptr, ptr %8, align 8
  %10 = getelementptr inbounds nuw i32, ptr %.val9, i64 %indvars.iv
  %11 = load i32, ptr %10, align 4
  %12 = and i32 %11, 65534
  %13 = load i32, ptr %3, align 4
  %14 = icmp sgt i32 %13, 0
  br i1 %14, label %.lr.ph.i, label %Vec_IntFind.exit.thread

.lr.ph.i:                                         ; preds = %9
  %15 = load ptr, ptr %5, align 8
  %wide.trip.count.i = zext nneg i32 %13 to i64
  br label %16

16:                                               ; preds = %20, %.lr.ph.i
  %indvars.iv.i = phi i64 [ 0, %.lr.ph.i ], [ %indvars.iv.next.i, %20 ]
  %17 = getelementptr inbounds nuw i32, ptr %15, i64 %indvars.iv.i
  %18 = load i32, ptr %17, align 4
  %19 = icmp eq i32 %18, %12
  br i1 %19, label %Vec_IntFind.exit, label %20

20:                                               ; preds = %16
  %indvars.iv.next.i = add nuw nsw i64 %indvars.iv.i, 1
  %exitcond.not.i = icmp eq i64 %indvars.iv.next.i, %wide.trip.count.i
  br i1 %exitcond.not.i, label %Vec_IntFind.exit.thread, label %16, !llvm.loop !452

Vec_IntFind.exit.thread:                          ; preds = %20, %9
  %21 = load i32, ptr %2, align 8
  %22 = icmp eq i32 %13, %21
  br i1 %22, label %23, label %.Vec_IntGrow.exit10_crit_edge.i

.Vec_IntGrow.exit10_crit_edge.i:                  ; preds = %Vec_IntFind.exit.thread
  %.pre.i = load ptr, ptr %5, align 8
  br label %Vec_IntPush.exit

23:                                               ; preds = %Vec_IntFind.exit.thread
  %24 = icmp slt i32 %13, 16
  br i1 %24, label %25, label %32

25:                                               ; preds = %23
  %26 = load ptr, ptr %5, align 8
  %.not9.i.i = icmp eq ptr %26, null
  br i1 %.not9.i.i, label %29, label %27

27:                                               ; preds = %25
  %28 = tail call dereferenceable_or_null(64) ptr @realloc(ptr noundef nonnull %26, i64 noundef 64) #28
  br label %Vec_IntGrow.exit.i

29:                                               ; preds = %25
  %30 = tail call noalias dereferenceable_or_null(64) ptr @malloc(i64 noundef 64) #27
  br label %Vec_IntGrow.exit.i

Vec_IntGrow.exit.i:                               ; preds = %29, %27
  %31 = phi ptr [ %28, %27 ], [ %30, %29 ]
  store ptr %31, ptr %5, align 8
  store i32 16, ptr %2, align 8
  br label %Vec_IntPush.exit

32:                                               ; preds = %23
  %33 = shl nuw nsw i32 %13, 1
  %34 = load ptr, ptr %5, align 8
  %.not9.i9.i = icmp eq ptr %34, null
  %35 = zext nneg i32 %33 to i64
  %36 = shl nuw nsw i64 %35, 2
  br i1 %.not9.i9.i, label %39, label %37

37:                                               ; preds = %32
  %38 = tail call ptr @realloc(ptr noundef nonnull %34, i64 noundef %36) #28
  br label %41

39:                                               ; preds = %32
  %40 = tail call noalias ptr @malloc(i64 noundef %36) #27
  br label %41

41:                                               ; preds = %39, %37
  %42 = phi ptr [ %38, %37 ], [ %40, %39 ]
  store ptr %42, ptr %5, align 8
  store i32 %33, ptr %2, align 8
  br label %Vec_IntPush.exit

Vec_IntPush.exit:                                 ; preds = %.Vec_IntGrow.exit10_crit_edge.i, %Vec_IntGrow.exit.i, %41
  %43 = phi ptr [ %.pre.i, %.Vec_IntGrow.exit10_crit_edge.i ], [ %42, %41 ], [ %31, %Vec_IntGrow.exit.i ]
  %44 = add nsw i32 %13, 1
  store i32 %44, ptr %3, align 4
  %45 = sext i32 %13 to i64
  %46 = getelementptr inbounds i32, ptr %43, i64 %45
  store i32 %12, ptr %46, align 4
  %.val.pre = load i32, ptr %6, align 4
  br label %Vec_IntFind.exit

Vec_IntFind.exit:                                 ; preds = %16, %Vec_IntPush.exit
  %.val = phi i32 [ %.val.pre, %Vec_IntPush.exit ], [ %.val14, %16 ]
  %indvars.iv.next = add nuw nsw i64 %indvars.iv, 1
  %47 = sext i32 %.val to i64
  %48 = icmp slt i64 %indvars.iv.next, %47
  br i1 %48, label %9, label %.critedge, !llvm.loop !453

.critedge:                                        ; preds = %Vec_IntFind.exit, %1
  ret ptr %2
}